; Function Attrs: mustprogress uwtable
define void @_ZN15EditPaintPlugin15mousePressEventEP11QMouseEventR9MeshModelP6GLArea(ptr nocapture noundef nonnull align 8 dereferenceable(704) %0, ptr nocapture noundef readonly %1, ptr nocapture nonnull readnone align 8 %2, ptr noundef %3) unnamed_addr #9 align 2 {
  %5 = getelementptr inbounds i8, ptr %0, i64 312
  %6 = load ptr, ptr %5, align 8
  %.not = icmp eq ptr %6, null
  br i1 %.not, label %8, label %7

7:                                                ; preds = %4
  tail call void @_ZdlPv(ptr noundef nonnull %6) #24
  store ptr null, ptr %5, align 8
  br label %8

8:                                                ; preds = %7, %4
  %9 = getelementptr inbounds i8, ptr %0, i64 328
  %10 = load ptr, ptr %9, align 8
  %11 = getelementptr inbounds i8, ptr %10, i64 512
  %12 = load ptr, ptr %11, align 8
  %13 = tail call noundef i32 @_ZNK15QAbstractSlider5valueEv(ptr noundef nonnull align 8 dereferenceable(48) %12)
  %14 = getelementptr inbounds i8, ptr %0, i64 584
  store i32 %13, ptr %14, align 8
  %15 = load ptr, ptr %9, align 8
  %16 = getelementptr inbounds i8, ptr %15, i64 344
  %17 = load ptr, ptr %16, align 8
  %18 = tail call noundef i32 @_ZNK15QAbstractSlider5valueEv(ptr noundef nonnull align 8 dereferenceable(48) %17)
  %19 = getelementptr inbounds i8, ptr %0, i64 588
  store i32 %18, ptr %19, align 4
  %20 = load ptr, ptr %9, align 8
  %21 = getelementptr inbounds i8, ptr %20, i64 488
  %22 = load ptr, ptr %21, align 8
  %23 = tail call noundef i32 @_ZNK15QAbstractSlider5valueEv(ptr noundef nonnull align 8 dereferenceable(48) %22)
  %24 = getelementptr inbounds i8, ptr %0, i64 592
  store i32 %23, ptr %24, align 8
  %25 = getelementptr inbounds i8, ptr %1, i64 16
  %26 = load i16, ptr %25, align 8
  %27 = getelementptr inbounds i8, ptr %1, i64 32
  %28 = load double, ptr %27, align 8
  %29 = fcmp ult double %28, 0.000000e+00
  br i1 %29, label %33, label %30

30:                                               ; preds = %8
  %31 = fadd double %28, 5.000000e-01
  %32 = fptosi double %31 to i32
  br label %_Z6qRoundd.exit.i.i

33:                                               ; preds = %8
  %34 = fadd double %28, -1.000000e+00
  %35 = fptosi double %34 to i32
  %36 = sitofp i32 %35 to double
  %37 = fsub double %28, %36
  %38 = fadd double %37, 5.000000e-01
  %39 = fptosi double %38 to i32
  %40 = add nsw i32 %39, %35
  br label %_Z6qRoundd.exit.i.i

_Z6qRoundd.exit.i.i:                              ; preds = %33, %30
  %41 = phi i32 [ %32, %30 ], [ %40, %33 ]
  %42 = getelementptr inbounds i8, ptr %1, i64 40
  %43 = load double, ptr %42, align 8
  %44 = fcmp ult double %43, 0.000000e+00
  br i1 %44, label %48, label %45

45:                                               ; preds = %_Z6qRoundd.exit.i.i
  %46 = fadd double %43, 5.000000e-01
  %47 = fptosi double %46 to i32
  br label %_ZNK11QMouseEvent3posEv.exit

48:                                               ; preds = %_Z6qRoundd.exit.i.i
  %49 = fadd double %43, -1.000000e+00
  %50 = fptosi double %49 to i32
  %51 = sitofp i32 %50 to double
  %52 = fsub double %43, %51
  %53 = fadd double %52, 5.000000e-01
  %54 = fptosi double %53 to i32
  %55 = add nsw i32 %54, %50
  br label %_ZNK11QMouseEvent3posEv.exit

_ZNK11QMouseEvent3posEv.exit:                     ; preds = %45, %48
  %56 = phi i32 [ %47, %45 ], [ %55, %48 ]
  %57 = getelementptr inbounds i8, ptr %1, i64 20
  %.sroa.0.0.copyload.i = load i32, ptr %57, align 4
  %58 = getelementptr inbounds i8, ptr %1, i64 80
  %59 = load i32, ptr %58, align 8
  %60 = getelementptr inbounds i8, ptr %0, i64 488
  %61 = getelementptr inbounds i8, ptr %0, i64 528
  %62 = load i8, ptr %61, align 8
  %63 = and i8 %62, 1
  %.not.i = icmp eq i8 %63, 0
  br i1 %.not.i, label %_ZN15EditPaintPlugin14pushInputEventEN6QEvent4TypeE6QPoint6QFlagsIN2Qt16KeyboardModifierEEdNS4_11MouseButtonEP6GLArea.exit, label %64

64:                                               ; preds = %_ZNK11QMouseEvent3posEv.exit
  %65 = getelementptr inbounds i8, ptr %0, i64 536
  tail call void @llvm.memcpy.p0.p0.i64(ptr noundef nonnull align 8 dereferenceable(42) %65, ptr noundef nonnull align 8 dereferenceable(42) %60, i64 42, i1 false)
  br label %_ZN15EditPaintPlugin14pushInputEventEN6QEvent4TypeE6QPoint6QFlagsIN2Qt16KeyboardModifierEEdNS4_11MouseButtonEP6GLArea.exit

_ZN15EditPaintPlugin14pushInputEventEN6QEvent4TypeE6QPoint6QFlagsIN2Qt16KeyboardModifierEEdNS4_11MouseButtonEP6GLArea.exit: ; preds = %_ZNK11QMouseEvent3posEv.exit, %64
  %.sroa.2.0.insert.ext.i.i = zext i32 %56 to i64
  %.sroa.2.0.insert.shift.i.i = shl nuw i64 %.sroa.2.0.insert.ext.i.i, 32
  %.sroa.0.0.insert.ext.i.i = zext i32 %41 to i64
  %.sroa.0.0.insert.insert.i.i = or disjoint i64 %.sroa.2.0.insert.shift.i.i, %.sroa.0.0.insert.ext.i.i
  %66 = zext i16 %26 to i32
  %67 = getelementptr inbounds i8, ptr %0, i64 492
  store i32 %66, ptr %67, align 4
  %68 = getelementptr inbounds i8, ptr %0, i64 496
  store i64 %.sroa.0.0.insert.insert.i.i, ptr %68, align 8
  %69 = getelementptr inbounds i8, ptr %3, i64 40
  %70 = load ptr, ptr %69, align 8
  %71 = getelementptr inbounds i8, ptr %70, i64 32
  %72 = load i32, ptr %71, align 4
  %73 = getelementptr inbounds i8, ptr %70, i64 24
  %74 = load i32, ptr %73, align 4
  %75 = add i32 %72, 1
  %76 = add i32 %56, %74
  %77 = sub i32 %75, %76
  %78 = getelementptr inbounds i8, ptr %0, i64 504
  %.sroa.2.0.insert.ext.i = zext i32 %77 to i64
  %.sroa.2.0.insert.shift.i = shl nuw i64 %.sroa.2.0.insert.ext.i, 32
  %.sroa.0.0.insert.insert.i = or disjoint i64 %.sroa.2.0.insert.shift.i, %.sroa.0.0.insert.ext.i.i
  store i64 %.sroa.0.0.insert.insert.i, ptr %78, align 8
  %79 = getelementptr inbounds i8, ptr %0, i64 512
  store i32 %.sroa.0.0.copyload.i, ptr %79, align 8
  store i32 %59, ptr %60, align 8
  %80 = getelementptr inbounds i8, ptr %0, i64 520
  store double 1.000000e+00, ptr %80, align 8
  store i8 0, ptr %61, align 8
  %81 = getelementptr inbounds i8, ptr %0, i64 529
  store i8 1, ptr %81, align 1
  tail call void @_ZN7QWidget6updateEv(ptr noundef nonnull align 8 dereferenceable(48) %3)
  ret void
}